target datalayout = "e-m:e-p270:32:32-p271:32:32-p272:64:64-i64:64-i128:128-f80:128-n8:16:32:64-S128"
target triple = "x86_64-pc-linux-gnu"

%struct.quic_lcid_st = type { %struct.quic_conn_id_st, i64, ptr, i8 }
%struct.quic_conn_id_st = type { i8, [20 x i8] }
%struct.retire_args = type { ptr, i64, i64 }

; Function Attrs: nounwind uwtable
define internal void @retire_for_conn(ptr noundef %0, ptr noundef %1) #0 {
  %3 = alloca ptr, align 8
  %4 = alloca ptr, align 8
  %5 = alloca ptr, align 8
  %6 = alloca i32, align 4
  store ptr %0, ptr %3, align 8, !tbaa !20
  store ptr %1, ptr %4, align 8, !tbaa !19
  call void @llvm.lifetime.start.p0(i64 8, ptr %5) #7
  %7 = load ptr, ptr %4, align 8, !tbaa !19
  store ptr %7, ptr %5, align 8, !tbaa !60
  %8 = load ptr, ptr %3, align 8, !tbaa !20
  %9 = getelementptr inbounds nuw %struct.quic_lcid_st, ptr %8, i32 0, i32 3
  %10 = load i8, ptr %9, align 8
  %11 = and i8 %10, 3
  %12 = zext i8 %11 to i32
  %13 = icmp eq i32 %12, 0
  br i1 %13, label %22, label %14

14:                                               ; preds = %2
  %15 = load ptr, ptr %3, align 8, !tbaa !20
  %16 = getelementptr inbounds nuw %struct.quic_lcid_st, ptr %15, i32 0, i32 1
  %17 = load i64, ptr %16, align 8, !tbaa !38
  %18 = load ptr, ptr %5, align 8, !tbaa !60
  %19 = getelementptr inbounds nuw %struct.retire_args, ptr %18, i32 0, i32 2
  %20 = load i64, ptr %19, align 8, !tbaa !56
  %21 = icmp uge i64 %17, %20
  br i1 %21, label %22, label %23

22:                                               ; preds = %14, %2
  store i32 1, ptr %6, align 4
  br label %41

23:                                               ; preds = %14
  %24 = load ptr, ptr %3, align 8, !tbaa !20
  %25 = getelementptr inbounds nuw %struct.quic_lcid_st, ptr %24, i32 0, i32 1
  %26 = load i64, ptr %25, align 8, !tbaa !38
  %27 = load ptr, ptr %5, align 8, !tbaa !60
  %28 = getelementptr inbounds nuw %struct.retire_args, ptr %27, i32 0, i32 1
  %29 = load i64, ptr %28, align 8, !tbaa !58
  %30 = icmp ult i64 %26, %29
  br i1 %30, label %31, label %40

31:                                               ; preds = %23
  %32 = load ptr, ptr %3, align 8, !tbaa !20
  %33 = getelementptr inbounds nuw %struct.quic_lcid_st, ptr %32, i32 0, i32 1
  %34 = load i64, ptr %33, align 8, !tbaa !38
  %35 = load ptr, ptr %5, align 8, !tbaa !60
  %36 = getelementptr inbounds nuw %struct.retire_args, ptr %35, i32 0, i32 1
  store i64 %34, ptr %36, align 8, !tbaa !58
  %37 = load ptr, ptr %3, align 8, !tbaa !20
  %38 = load ptr, ptr %5, align 8, !tbaa !60
  %39 = getelementptr inbounds nuw %struct.retire_args, ptr %38, i32 0, i32 0
  store ptr %37, ptr %39, align 8, !tbaa !59
  br label %40

40:                                               ; preds = %31, %23
  store i32 0, ptr %6, align 4
  br label %41

41:                                               ; preds = %40, %22
  call void @llvm.lifetime.end.p0(i64 8, ptr %5) #7
  %42 = load i32, ptr %6, align 4
  switch i32 %42, label %44 [
    i32 0, label %43
    i32 1, label %43
  ]

43:                                               ; preds = %41, %41
  ret void

44:                                               ; preds = %41
  unreachable
}