; Function Attrs: mustprogress nofree norecurse nosync nounwind willreturn memory(argmem: readwrite) uwtable
define internal void @retire_for_conn(ptr noundef %0, ptr noundef captures(none) %1) #8 {
  %3 = getelementptr inbounds nuw i8, ptr %0, i64 40
  %4 = load i8, ptr %3, align 8
  %5 = and i8 %4, 3
  %6 = icmp eq i8 %5, 0
  br i1 %6, label %17, label %7

7:                                                ; preds = %2
  %8 = getelementptr inbounds nuw i8, ptr %0, i64 24
  %9 = load i64, ptr %8, align 8, !tbaa !30
  %10 = getelementptr inbounds nuw i8, ptr %1, i64 16
  %11 = load i64, ptr %10, align 8, !tbaa !38
  %.not = icmp ult i64 %9, %11
  br i1 %.not, label %12, label %17

12:                                               ; preds = %7
  %13 = getelementptr inbounds nuw i8, ptr %1, i64 8
  %14 = load i64, ptr %13, align 8, !tbaa !40
  %15 = icmp ult i64 %9, %14
  br i1 %15, label %16, label %17

16:                                               ; preds = %12
  store i64 %9, ptr %13, align 8, !tbaa !40
  store ptr %0, ptr %1, align 8, !tbaa !41
  br label %17

17:                                               ; preds = %12, %16, %2, %7
  ret void
}